(lp1
S'#ITSAPROCESS'
p2
aS'#LIFEISAWESOME'
p3
aS'#ITMIGHTHAPPEN'
p4
aS'#DONTTALKTOME'
p5
aS'#LIFEISAWESOME'
p6
aS'#thingsarapperwouldsay'
p7
aS'#SOCIALNETWORK'
p8
aS'#THATJUSTHAPPENED'
p9
aS'#PredictingKanyeTweets'
p10
aS'#PredictingKanyeTweets'
p11
aS'#039'
p12
aS'#EDUCATIONISTHEMOTIVATION'
p13
aS'#ITSAPROCESS'
p14
aS'#Education'
p15
aS'#039'
p16
aS'#039'
p17
aS'#DON'
p18
aS'#039'
p19
aS'#039'
p20
aS'#FREEWEEZY'
p21
aS'#039'
p22
aS'#ITSAPROCESS'
p23
aS'#goblets'
p24
aS'#BABYMAMAJET'
p25
aS'#PredictingKanyeTweets'
p26
aS'#PredictingKanyeTweets'
p27
aS'#Thisisagloriousoccasion'
p28
aS'#ITSAPROCESS'
p29
aS'#DARKTWISTEDFANTASY'
p30
aS'#FREEWEEZY'
p31
aS'#POWER'
p32
aS'#POWE'
p33
aS'#VMA'
p34
aS'#NowPlaying'
p35
aS'#FREEWEEZY'
p36
aS'#shedontreallylikeyou'
p37
aS'#GOODFRIDAYS'
p38
aS'#VMAs'
p39
aS'#FASHIONNIGHT'
p40
aS'#FASHIONNIGHT'
p41
aS'#FREEWEEZY'
p42
aS'#FASHIONNIGHT'
p43
aS'#ITSAPROCESS'
p44
aS'#WatchtheThrown'
p45
aS'#DoyouthinkLucifer'
p46
aS'#askkanye'
p47
aS'#askkanye'
p48
aS'#Runaway'
p49
aS'#Ebanks'
p50
aS'#Selita'
p51
aS'#ASKKANYE'
p52
aS'#ASKKANYE'
p53
aS'#Runaway'
p54
aS'#roses'
p55
aS'#lastcall'
p56
aS'#Kanyeshrug'
p57
aS'#itsaprocess'
p58
aS'#Momentofclarity'
p59
aS'#Rockstarlife'
p60
aS'#Greatesttweetofalltime'
p61
aS'#Culture'
p62
aS'#Heavy'
p63
aS'#7'
p64
aS'#AWESOMEfriday'
p65
aS'#GOODFriday'
p66
aS'#hiphop'
p67
aS'#NowPlaying'
p68
aS'#power'
p69
aS'#Mypresenceisapresentkissmyass'
p70
aS'#LOUIETWEETS'
p71
aS'#WELIVETHISSHIT'
p72
aS'#wittyassline'
p73
aS'#SWAG'
p74
aS'#Thepatronyougiveyokids'
p75
aS'#1'
p76
aS'#2'
p77
aS'#Bears'
p78
aS'#LOUIETWEETS'
p79
aS'#itsdeericious'
p80
aS'#LUXURYREALNESS'
p81
aS'#majortrustissues'
p82
aS'#PROUDOFJUSTIN'
p83
aS'#ARCADEFIRE'
p84
aS'#OGSWAG'
p85
aS'#OUCH'
p86
aS'#1'
p87
aS'#Haikuswag'
p88
aS'#Equatorial'
p89
aS'#YEEZYWORLDPEACE'
p90
aS'#BestNewYearsParty'
p91
aS'#EVERAGAIN'
p92
aS'#thehoilidays'
p93
aS'#NBA'
p94
aS'#RARE'
p95
aS'#I'
p96
aS'#AirYeezys'
p97
a.